; Function Attrs: mustprogress nofree nounwind uwtable
define void @_ZN5Ipopt11FileJournal10PrintfImplENS_16EJournalCategoryENS_13EJournalLevelEPKcP13__va_list_tag(ptr nocapture noundef nonnull readonly align 8 dereferenceable(184) %0, i32 %1, i32 %2, ptr nocapture noundef readonly %3, ptr noundef %4) unnamed_addr #13 align 2 {
  %6 = getelementptr inbounds i8, ptr %0, i64 176
  %7 = load ptr, ptr %6, align 8
  %.not = icmp eq ptr %7, null
  br i1 %.not, label %10, label %8

8:                                                ; preds = %5
  %9 = tail call i32 @vfprintf(ptr noundef nonnull %7, ptr noundef %3, ptr noundef %4) #20
  br label %10

10:                                               ; preds = %8, %5
  ret void
}